; ModuleID = '45/1744.c'
source_filename = "45/1744.c"
target datalayout = "e-m:e-p270:32:32-p271:32:32-p272:64:64-i64:64-f80:128-n8:16:32:64-S128"
target triple = "x86_64-pc-linux-gnu"

@.str = private unnamed_addr constant [3 x i8] c"%d\00", align 1

; Function Attrs: noinline nounwind uwtable
define dso_local i32 @main() #0 {
  %1 = alloca i32, align 4
  %2 = alloca [100 x i8], align 16
  %3 = alloca [100 x i8], align 16
  %4 = alloca i32, align 4
  %5 = alloca i32, align 4
  %6 = alloca i32, align 4
  %7 = alloca i32, align 4
  %8 = alloca i32, align 4
  store i32 0, i32* %1, align 4
  store i32 0, i32* %5, align 4
  %9 = getelementptr inbounds [100 x i8], [100 x i8]* %2, i64 0, i64 0
  %10 = call i32 (i8*, ...) bitcast (i32 (...)* @gets to i32 (i8*, ...)*)(i8* %9)
  %11 = getelementptr inbounds [100 x i8], [100 x i8]* %2, i64 0, i64 0
  %12 = call i64 @strlen(i8* %11) #3
  %13 = trunc i64 %12 to i32
  store i32 %13, i32* %7, align 4
  store i32 0, i32* %4, align 4
  br label %14

14:                                               ; preds = %38, %0
  %15 = load i32, i32* %4, align 4
  %16 = load i32, i32* %7, align 4
  %17 = icmp slt i32 %15, %16
  br i1 %17, label %18, label %41

18:                                               ; preds = %14
  %19 = load i32, i32* %4, align 4
  %20 = sext i32 %19 to i64
  %21 = getelementptr inbounds [100 x i8], [100 x i8]* %2, i64 0, i64 %20
  %22 = load i8, i8* %21, align 1
  %23 = sext i8 %22 to i32
  %24 = icmp eq i32 %23, 32
  br i1 %24, label %25, label %29

25:                                               ; preds = %18
  %26 = load i32, i32* %4, align 4
  %27 = sext i32 %26 to i64
  %28 = getelementptr inbounds [100 x i8], [100 x i8]* %3, i64 0, i64 %27
  store i8 0, i8* %28, align 1
  br label %41

29:                                               ; preds = %18
  %30 = load i32, i32* %4, align 4
  %31 = sext i32 %30 to i64
  %32 = getelementptr inbounds [100 x i8], [100 x i8]* %2, i64 0, i64 %31
  %33 = load i8, i8* %32, align 1
  %34 = load i32, i32* %4, align 4
  %35 = sext i32 %34 to i64
  %36 = getelementptr inbounds [100 x i8], [100 x i8]* %3, i64 0, i64 %35
  store i8 %33, i8* %36, align 1
  br label %37

37:                                               ; preds = %29
  br label %38

38:                                               ; preds = %37
  %39 = load i32, i32* %4, align 4
  %40 = add nsw i32 %39, 1
  store i32 %40, i32* %4, align 4
  br label %14

41:                                               ; preds = %25, %14
  %42 = load i32, i32* %4, align 4
  %43 = icmp eq i32 %42, 1
  br i1 %43, label %44, label %71

44:                                               ; preds = %41
  %45 = load i32, i32* %4, align 4
  %46 = add nsw i32 %45, 1
  store i32 %46, i32* %5, align 4
  br label %47

47:                                               ; preds = %67, %44
  %48 = load i32, i32* %5, align 4
  %49 = load i32, i32* %7, align 4
  %50 = icmp slt i32 %48, %49
  br i1 %50, label %51, label %70

51:                                               ; preds = %47
  %52 = getelementptr inbounds [100 x i8], [100 x i8]* %3, i64 0, i64 0
  %53 = load i8, i8* %52, align 16
  %54 = sext i8 %53 to i32
  %55 = load i32, i32* %5, align 4
  %56 = sext i32 %55 to i64
  %57 = getelementptr inbounds [100 x i8], [100 x i8]* %2, i64 0, i64 %56
  %58 = load i8, i8* %57, align 1
  %59 = sext i8 %58 to i32
  %60 = icmp eq i32 %54, %59
  br i1 %60, label %61, label %66

61:                                               ; preds = %51
  %62 = load i32, i32* %5, align 4
  %63 = load i32, i32* %4, align 4
  %64 = sub nsw i32 %62, %63
  %65 = call i32 (i8*, ...) @printf(i8* getelementptr inbounds ([3 x i8], [3 x i8]* @.str, i64 0, i64 0), i32 %64)
  br label %70

66:                                               ; preds = %51
  br label %67

67:                                               ; preds = %66
  %68 = load i32, i32* %5, align 4
  %69 = add nsw i32 %68, 1
  store i32 %69, i32* %5, align 4
  br label %47

70:                                               ; preds = %61, %47
  br label %123

71:                                               ; preds = %41
  %72 = load i32, i32* %4, align 4
  %73 = add nsw i32 %72, 1
  store i32 %73, i32* %5, align 4
  br label %74

74:                                               ; preds = %119, %71
  %75 = load i32, i32* %5, align 4
  %76 = load i32, i32* %7, align 4
  %77 = icmp slt i32 %75, %76
  br i1 %77, label %78, label %122

78:                                               ; preds = %74
  store i32 0, i32* %6, align 4
  store i32 0, i32* %8, align 4
  br label %79

79:                                               ; preds = %103, %78
  %80 = load i32, i32* %8, align 4
  %81 = load i32, i32* %4, align 4
  %82 = sub nsw i32 %81, 1
  %83 = icmp slt i32 %80, %82
  br i1 %83, label %84, label %106

84:                                               ; preds = %79
  %85 = load i32, i32* %8, align 4
  %86 = sext i32 %85 to i64
  %87 = getelementptr inbounds [100 x i8], [100 x i8]* %3, i64 0, i64 %86
  %88 = load i8, i8* %87, align 1
  %89 = sext i8 %88 to i32
  %90 = load i32, i32* %8, align 4
  %91 = load i32, i32* %5, align 4
  %92 = add nsw i32 %90, %91
  %93 = sext i32 %92 to i64
  %94 = getelementptr inbounds [100 x i8], [100 x i8]* %2, i64 0, i64 %93
  %95 = load i8, i8* %94, align 1
  %96 = sext i8 %95 to i32
  %97 = icmp ne i32 %89, %96
  br i1 %97, label %98, label %99

98:                                               ; preds = %84
  br label %106

99:                                               ; preds = %84
  %100 = load i32, i32* %6, align 4
  %101 = add nsw i32 %100, 1
  store i32 %101, i32* %6, align 4
  br label %102

102:                                              ; preds = %99
  br label %103

103:                                              ; preds = %102
  %104 = load i32, i32* %8, align 4
  %105 = add nsw i32 %104, 1
  store i32 %105, i32* %8, align 4
  br label %79

106:                                              ; preds = %98, %79
  %107 = load i32, i32* %6, align 4
  %108 = load i32, i32* %4, align 4
  %109 = sub nsw i32 %108, 1
  %110 = icmp eq i32 %107, %109
  br i1 %110, label %111, label %118

111:                                              ; preds = %106
  %112 = load i32, i32* %5, align 4
  %113 = load i32, i32* %4, align 4
  %114 = sub nsw i32 %112, %113
  %115 = sub nsw i32 %114, 1
  store i32 %115, i32* %5, align 4
  %116 = load i32, i32* %5, align 4
  %117 = call i32 (i8*, ...) @printf(i8* getelementptr inbounds ([3 x i8], [3 x i8]* @.str, i64 0, i64 0), i32 %116)
  br label %122

118:                                              ; preds = %106
  br label %119

119:                                              ; preds = %118
  %120 = load i32, i32* %5, align 4
  %121 = add nsw i32 %120, 1
  store i32 %121, i32* %5, align 4
  br label %74

122:                                              ; preds = %111, %74
  br label %123

123:                                              ; preds = %122, %70
  ret i32 0
}

declare dso_local i32 @gets(...) #1

; Function Attrs: nounwind readonly
declare dso_local i64 @strlen(i8*) #2

declare dso_local i32 @printf(i8*, ...) #1


!llvm.module.flags = !{!0}
!llvm.ident = !{!1}

!0 = !{i32 1, !"wchar_size", i32 4}
!1 = !{!"clang version 10.0.0-4ubuntu1 "}
